; Function Attrs: nounwind uwtable
define ptr @l_Array_foldrMUnsafe_fold___at_Std_Tactic_BVDecide_LRAT_Internal_DefaultFormula_performRatCheck___spec__3(ptr noundef readnone captures(none) %0, ptr noundef readonly captures(none) %1, i64 noundef %2, i64 noundef %3, ptr noundef %4) local_unnamed_addr #1 {
  %.not28 = icmp eq i64 %2, %3
  br i1 %.not28, label %._crit_edge, label %.lr.ph

.lr.ph:                                           ; preds = %5
  %6 = getelementptr inbounds nuw i8, ptr %1, i64 24
  br label %7

7:                                                ; preds = %.lr.ph, %22
  %.01630 = phi i64 [ %2, %.lr.ph ], [ %8, %22 ]
  %.01829 = phi ptr [ %4, %.lr.ph ], [ %19, %22 ]
  %8 = add i64 %.01630, -1
  %9 = getelementptr inbounds nuw [0 x ptr], ptr %6, i64 0, i64 %8
  %10 = load ptr, ptr %9, align 8, !tbaa !9
  %11 = ptrtoint ptr %10 to i64
  %12 = and i64 %11, 1
  %.not.i = icmp eq i64 %12, 0
  br i1 %.not.i, label %13, label %lean_array_uget.exit

13:                                               ; preds = %7
  %.val.i.i = load i32, ptr %10, align 4, !tbaa !4
  %14 = icmp sgt i32 %.val.i.i, 0
  br i1 %14, label %15, label %17, !prof !11

15:                                               ; preds = %13
  %16 = add nuw i32 %.val.i.i, 1
  store i32 %16, ptr %10, align 4, !tbaa !4
  br label %lean_array_uget.exit

17:                                               ; preds = %13
  %.not.i.i = icmp eq i32 %.val.i.i, 0
  br i1 %.not.i.i, label %lean_array_uget.exit, label %18

18:                                               ; preds = %17
  tail call void @lean_inc_ref_cold(ptr noundef nonnull %10) #5
  br label %lean_array_uget.exit

lean_array_uget.exit:                             ; preds = %7, %15, %17, %18
  tail call void @lean_inc_heartbeat() #5
  %19 = tail call noalias ptr @mi_malloc_small(i64 noundef 24) #5
  %20 = icmp eq ptr %19, null
  br i1 %20, label %21, label %22

21:                                               ; preds = %lean_array_uget.exit
  tail call void @lean_internal_panic_out_of_memory() #6
  unreachable

22:                                               ; preds = %lean_array_uget.exit
  %23 = getelementptr inbounds nuw i8, ptr %19, i64 4
  store i32 1, ptr %19, align 4, !tbaa !4
  store i32 16908312, ptr %23, align 4
  %24 = getelementptr inbounds nuw i8, ptr %19, i64 8
  store ptr %10, ptr %24, align 8, !tbaa !9
  %25 = getelementptr inbounds nuw i8, ptr %19, i64 16
  store ptr %.01829, ptr %25, align 8, !tbaa !9
  %.not = icmp eq i64 %8, %3
  br i1 %.not, label %._crit_edge, label %7

._crit_edge:                                      ; preds = %22, %5
  %.018.lcssa = phi ptr [ %4, %5 ], [ %19, %22 ]
  ret ptr %.018.lcssa
}